	.file	"ssa.c"
.lcomm _vars,4,4
.lcomm _mvars,4,4
.lcomm _ssa_size,4,4
.lcomm _ssa_nalloc,4,4
	.text
	.globl	_make_ssa_block
	.def	_make_ssa_block;	.scl	2;	.type	32;	.endef
_make_ssa_block:
LFB25:
	.cfi_startproc
	pushl	%ebp
	.cfi_def_cfa_offset 8
	.cfi_offset 5, -8
	movl	%esp, %ebp
	.cfi_def_cfa_register 5
	subl	$40, %esp
	movl	$12, (%esp)
	call	_malloc
	movl	%eax, -12(%ebp)
	movl	-12(%ebp), %eax
	movl	8(%ebp), %edx
	movl	%edx, (%eax)
	movl	-12(%ebp), %eax
	movl	$0, 4(%eax)
	movl	-12(%ebp), %eax
	movl	$0, 8(%eax)
	movl	-12(%ebp), %eax
	leave
	.cfi_restore 5
	.cfi_def_cfa 4, 4
	ret
	.cfi_endproc
LFE25:
	.globl	_make_ssa_block_entry
	.def	_make_ssa_block_entry;	.scl	2;	.type	32;	.endef
_make_ssa_block_entry:
LFB26:
	.cfi_startproc
	pushl	%ebp
	.cfi_def_cfa_offset 8
	.cfi_offset 5, -8
	movl	%esp, %ebp
	.cfi_def_cfa_register 5
	subl	$40, %esp
	movl	$16, (%esp)
	call	_malloc
	movl	%eax, -12(%ebp)
	movl	-12(%ebp), %eax
	movl	$0, (%eax)
	movl	-12(%ebp), %eax
	movl	$0, 4(%eax)
	movl	-12(%ebp), %eax
	movl	$0, 8(%eax)
	movl	-12(%ebp), %eax
	movl	$0, 12(%eax)
	movl	-12(%ebp), %eax
	leave
	.cfi_restore 5
	.cfi_def_cfa 4, 4
	ret
	.cfi_endproc
LFE26:
	.ident	"GCC: (MinGW.org GCC-6.3.0-1) 6.3.0"
	.def	_malloc;	.scl	2;	.type	32;	.endef
